target datalayout = "e-m:e-p270:32:32-p271:32:32-p272:64:64-i64:64-i128:128-f80:128-n8:16:32:64-S128"
target triple = "x86_64-pc-linux-gnu"

%struct.ident_t = type { i32, i32, i32, i32, ptr }
%class.anon.128 = type { ptr, ptr }

@1 = private unnamed_addr constant %struct.ident_t { i32 0, i32 514, i32 0, i32 22, ptr @0 }, align 8

; Function Attrs: inlinehint mustprogress nounwind ssp uwtable
define linkonce_odr hidden void @_ZN6open3d1t8geometry6kernel9transform19RotateNormalsKernelIfEEvPKT_PS5_(ptr noundef %0, ptr noundef %1) #3 comdat {
  %3 = alloca ptr, align 8
  %4 = alloca ptr, align 8
  %5 = alloca [3 x float], align 4
  store ptr %0, ptr %3, align 8, !tbaa !21
  store ptr %1, ptr %4, align 8, !tbaa !21
  call void @llvm.lifetime.start.p0(i64 12, ptr %5) #25
  %6 = load ptr, ptr %3, align 8, !tbaa !21
  %7 = getelementptr inbounds float, ptr %6, i64 0
  %8 = load float, ptr %7, align 4, !tbaa !136
  %9 = load ptr, ptr %4, align 8, !tbaa !21
  %10 = getelementptr inbounds float, ptr %9, i64 0
  %11 = load float, ptr %10, align 4, !tbaa !136
  %12 = load ptr, ptr %3, align 8, !tbaa !21
  %13 = getelementptr inbounds float, ptr %12, i64 1
  %14 = load float, ptr %13, align 4, !tbaa !136
  %15 = load ptr, ptr %4, align 8, !tbaa !21
  %16 = getelementptr inbounds float, ptr %15, i64 1
  %17 = load float, ptr %16, align 4, !tbaa !136
  %18 = fmul float %14, %17
  %19 = call float @llvm.fmuladd.f32(float %8, float %11, float %18)
  %20 = load ptr, ptr %3, align 8, !tbaa !21
  %21 = getelementptr inbounds float, ptr %20, i64 2
  %22 = load float, ptr %21, align 4, !tbaa !136
  %23 = load ptr, ptr %4, align 8, !tbaa !21
  %24 = getelementptr inbounds float, ptr %23, i64 2
  %25 = load float, ptr %24, align 4, !tbaa !136
  %26 = call float @llvm.fmuladd.f32(float %22, float %25, float %19)
  store float %26, ptr %5, align 4, !tbaa !136
  %27 = getelementptr inbounds float, ptr %5, i64 1
  %28 = load ptr, ptr %3, align 8, !tbaa !21
  %29 = getelementptr inbounds float, ptr %28, i64 3
  %30 = load float, ptr %29, align 4, !tbaa !136
  %31 = load ptr, ptr %4, align 8, !tbaa !21
  %32 = getelementptr inbounds float, ptr %31, i64 0
  %33 = load float, ptr %32, align 4, !tbaa !136
  %34 = load ptr, ptr %3, align 8, !tbaa !21
  %35 = getelementptr inbounds float, ptr %34, i64 4
  %36 = load float, ptr %35, align 4, !tbaa !136
  %37 = load ptr, ptr %4, align 8, !tbaa !21
  %38 = getelementptr inbounds float, ptr %37, i64 1
  %39 = load float, ptr %38, align 4, !tbaa !136
  %40 = fmul float %36, %39
  %41 = call float @llvm.fmuladd.f32(float %30, float %33, float %40)
  %42 = load ptr, ptr %3, align 8, !tbaa !21
  %43 = getelementptr inbounds float, ptr %42, i64 5
  %44 = load float, ptr %43, align 4, !tbaa !136
  %45 = load ptr, ptr %4, align 8, !tbaa !21
  %46 = getelementptr inbounds float, ptr %45, i64 2
  %47 = load float, ptr %46, align 4, !tbaa !136
  %48 = call float @llvm.fmuladd.f32(float %44, float %47, float %41)
  store float %48, ptr %27, align 4, !tbaa !136
  %49 = getelementptr inbounds float, ptr %5, i64 2
  %50 = load ptr, ptr %3, align 8, !tbaa !21
  %51 = getelementptr inbounds float, ptr %50, i64 6
  %52 = load float, ptr %51, align 4, !tbaa !136
  %53 = load ptr, ptr %4, align 8, !tbaa !21
  %54 = getelementptr inbounds float, ptr %53, i64 0
  %55 = load float, ptr %54, align 4, !tbaa !136
  %56 = load ptr, ptr %3, align 8, !tbaa !21
  %57 = getelementptr inbounds float, ptr %56, i64 7
  %58 = load float, ptr %57, align 4, !tbaa !136
  %59 = load ptr, ptr %4, align 8, !tbaa !21
  %60 = getelementptr inbounds float, ptr %59, i64 1
  %61 = load float, ptr %60, align 4, !tbaa !136
  %62 = fmul float %58, %61
  %63 = call float @llvm.fmuladd.f32(float %52, float %55, float %62)
  %64 = load ptr, ptr %3, align 8, !tbaa !21
  %65 = getelementptr inbounds float, ptr %64, i64 8
  %66 = load float, ptr %65, align 4, !tbaa !136
  %67 = load ptr, ptr %4, align 8, !tbaa !21
  %68 = getelementptr inbounds float, ptr %67, i64 2
  %69 = load float, ptr %68, align 4, !tbaa !136
  %70 = call float @llvm.fmuladd.f32(float %66, float %69, float %63)
  store float %70, ptr %49, align 4, !tbaa !136
  %71 = getelementptr inbounds [3 x float], ptr %5, i64 0, i64 0
  %72 = load float, ptr %71, align 4, !tbaa !136
  %73 = load ptr, ptr %4, align 8, !tbaa !21
  %74 = getelementptr inbounds float, ptr %73, i64 0
  store float %72, ptr %74, align 4, !tbaa !136
  %75 = getelementptr inbounds [3 x float], ptr %5, i64 0, i64 1
  %76 = load float, ptr %75, align 4, !tbaa !136
  %77 = load ptr, ptr %4, align 8, !tbaa !21
  %78 = getelementptr inbounds float, ptr %77, i64 1
  store float %76, ptr %78, align 4, !tbaa !136
  %79 = getelementptr inbounds [3 x float], ptr %5, i64 0, i64 2
  %80 = load float, ptr %79, align 4, !tbaa !136
  %81 = load ptr, ptr %4, align 8, !tbaa !21
  %82 = getelementptr inbounds float, ptr %81, i64 2
  store float %80, ptr %82, align 4, !tbaa !136
  call void @llvm.lifetime.end.p0(i64 12, ptr %5) #25
  ret void
}

; Function Attrs: noinline noreturn nounwind ssp uwtable
define linkonce_odr hidden void @__clang_call_terminate(ptr noundef %0) #23 comdat {
  %2 = call ptr @__cxa_begin_catch(ptr %0) #25
  call void @_ZSt9terminatev() #28
  unreachable
}

; Function Attrs: inlinehint mustprogress ssp uwtable
define internal void @"_ZZZZN6open3d1t8geometry6kernel9transform16RotateNormalsCPUERKNS_4core6TensorERS5_ENK3$_0clEvENKUlvE_clEvENKUllE_clEl"(ptr noundef nonnull align 8 dereferenceable(16) %0, i64 noundef %1) #2 align 2 {
  %3 = alloca ptr, align 8
  %4 = alloca i64, align 8
  store ptr %0, ptr %3, align 8, !tbaa !9
  store i64 %1, ptr %4, align 8, !tbaa !16
  %5 = load ptr, ptr %3, align 8
  %6 = getelementptr inbounds nuw %class.anon.128, ptr %5, i32 0, i32 0
  %7 = load ptr, ptr %6, align 8, !tbaa !822
  %8 = getelementptr inbounds nuw %class.anon.128, ptr %5, i32 0, i32 1
  %9 = load ptr, ptr %8, align 8, !tbaa !824
  %10 = load i64, ptr %4, align 8, !tbaa !16
  %11 = mul nsw i64 3, %10
  %12 = getelementptr inbounds float, ptr %9, i64 %11
  call void @_ZN6open3d1t8geometry6kernel9transform19RotateNormalsKernelIfEEvPKT_PS5_(ptr noundef %7, ptr noundef %12)
  ret void
}

; Function Attrs: alwaysinline norecurse nounwind ssp uwtable
define internal void @"_ZN6open3d4core15ParallelForCPU_IZZZNS_1t8geometry6kernel9transform16RotateNormalsCPUERKNS0_6TensorERS6_ENK3$_0clEvENKUlvE_clEvEUllE_EEvRKNS0_6DeviceElRKT_.omp_outlined"(ptr noalias noundef %0, ptr noalias noundef %1, ptr noundef nonnull align 8 dereferenceable(8) %2, ptr noundef nonnull align 8 dereferenceable(16) %3) #24 personality ptr @__gxx_personality_v0 {
  %5 = alloca ptr, align 8
  %6 = alloca ptr, align 8
  %7 = alloca ptr, align 8
  %8 = alloca ptr, align 8
  %9 = alloca ptr, align 8
  %10 = alloca i64, align 8
  %11 = alloca i64, align 8
  %12 = alloca i64, align 8
  %13 = alloca i64, align 8
  %14 = alloca i64, align 8
  %15 = alloca i64, align 8
  %16 = alloca i64, align 8
  %17 = alloca i32, align 4
  %18 = alloca i64, align 8
  store ptr %0, ptr %5, align 8, !tbaa !209
  store ptr %1, ptr %6, align 8, !tbaa !209
  store ptr %2, ptr %7, align 8, !tbaa !351
  store ptr %3, ptr %8, align 8, !tbaa !9
  %19 = load ptr, ptr %7, align 8, !tbaa !351
  %20 = load ptr, ptr %8, align 8, !tbaa !9
  store ptr %20, ptr %9, align 8
  call void @llvm.lifetime.start.p0(i64 8, ptr %10) #25
  call void @llvm.lifetime.start.p0(i64 8, ptr %11) #25
  %21 = load i64, ptr %19, align 8, !tbaa !16
  store i64 %21, ptr %11, align 8, !tbaa !16
  call void @llvm.lifetime.start.p0(i64 8, ptr %12) #25
  %22 = load i64, ptr %11, align 8, !tbaa !16
  %23 = sub nsw i64 %22, 0
  %24 = sdiv i64 %23, 1
  %25 = sub nsw i64 %24, 1
  store i64 %25, ptr %12, align 8, !tbaa !16
  call void @llvm.lifetime.start.p0(i64 8, ptr %13) #25
  store i64 0, ptr %13, align 8, !tbaa !16
  call void @llvm.lifetime.end.p0(i64 8, ptr %13) #25
  %26 = load i64, ptr %11, align 8, !tbaa !16
  %27 = icmp slt i64 0, %26
  br i1 %27, label %28, label %62

28:                                               ; preds = %4
  call void @llvm.lifetime.start.p0(i64 8, ptr %14) #25
  store i64 0, ptr %14, align 8, !tbaa !16
  call void @llvm.lifetime.start.p0(i64 8, ptr %15) #25
  %29 = load i64, ptr %12, align 8, !tbaa !16
  store i64 %29, ptr %15, align 8, !tbaa !16
  call void @llvm.lifetime.start.p0(i64 8, ptr %16) #25
  store i64 1, ptr %16, align 8, !tbaa !16
  call void @llvm.lifetime.start.p0(i64 4, ptr %17) #25
  store i32 0, ptr %17, align 4, !tbaa !39
  call void @llvm.lifetime.start.p0(i64 8, ptr %18) #25
  %30 = load ptr, ptr %5, align 8
  %31 = load i32, ptr %30, align 4, !tbaa !39
  call void @__kmpc_for_static_init_8(ptr @1, i32 %31, i32 34, ptr %17, ptr %14, ptr %15, ptr %16, i64 1, i64 1)
  %32 = load i64, ptr %15, align 8, !tbaa !16
  %33 = load i64, ptr %12, align 8, !tbaa !16
  %34 = icmp sgt i64 %32, %33
  br i1 %34, label %35, label %37

35:                                               ; preds = %28
  %36 = load i64, ptr %12, align 8, !tbaa !16
  br label %39

37:                                               ; preds = %28
  %38 = load i64, ptr %15, align 8, !tbaa !16
  br label %39

39:                                               ; preds = %37, %35
  %40 = phi i64 [ %36, %35 ], [ %38, %37 ]
  store i64 %40, ptr %15, align 8, !tbaa !16
  %41 = load i64, ptr %14, align 8, !tbaa !16
  store i64 %41, ptr %10, align 8, !tbaa !16
  br label %42

42:                                               ; preds = %55, %39
  %43 = load i64, ptr %10, align 8, !tbaa !16
  %44 = load i64, ptr %15, align 8, !tbaa !16
  %45 = icmp sle i64 %43, %44
  br i1 %45, label %47, label %46

46:                                               ; preds = %42
  br label %58

47:                                               ; preds = %42
  %48 = load i64, ptr %10, align 8, !tbaa !16
  %49 = mul nsw i64 %48, 1
  %50 = add nsw i64 0, %49
  store i64 %50, ptr %18, align 8, !tbaa !16
  %51 = load ptr, ptr %9, align 8, !tbaa !9
  %52 = load i64, ptr %18, align 8, !tbaa !16
  invoke void @"_ZZZZN6open3d1t8geometry6kernel9transform16RotateNormalsCPUERKNS_4core6TensorERS5_ENK3$_0clEvENKUlvE_clEvENKUllE_clEl"(ptr noundef nonnull align 8 dereferenceable(16) %51, i64 noundef %52)
          to label %53 unwind label %63

53:                                               ; preds = %47
  br label %54

54:                                               ; preds = %53
  br label %55

55:                                               ; preds = %54
  %56 = load i64, ptr %10, align 8, !tbaa !16
  %57 = add nsw i64 %56, 1
  store i64 %57, ptr %10, align 8, !tbaa !16
  br label %42

58:                                               ; preds = %46
  br label %59

59:                                               ; preds = %58
  %60 = load ptr, ptr %5, align 8
  %61 = load i32, ptr %60, align 4, !tbaa !39
  call void @__kmpc_for_static_fini(ptr @1, i32 %61)
  call void @llvm.lifetime.end.p0(i64 8, ptr %18) #25
  call void @llvm.lifetime.end.p0(i64 4, ptr %17) #25
  call void @llvm.lifetime.end.p0(i64 8, ptr %16) #25
  call void @llvm.lifetime.end.p0(i64 8, ptr %15) #25
  call void @llvm.lifetime.end.p0(i64 8, ptr %14) #25
  br label %62

62:                                               ; preds = %59, %4
  call void @llvm.lifetime.end.p0(i64 8, ptr %12) #25
  call void @llvm.lifetime.end.p0(i64 8, ptr %11) #25
  call void @llvm.lifetime.end.p0(i64 8, ptr %10) #25
  ret void

63:                                               ; preds = %47
  %64 = landingpad { ptr, i32 }
          catch ptr null
  %65 = extractvalue { ptr, i32 } %64, 0
  call void @__clang_call_terminate(ptr %65) #28
  unreachable
}